target datalayout = "e-m:e-p270:32:32-p271:32:32-p272:64:64-i64:64-i128:128-f80:128-n8:16:32:64-S128"
target triple = "x86_64-pc-linux-gnu"

%struct.strbuf = type { i64, i64, ptr }
%struct.loose_object_map = type { ptr, ptr }
%struct.repository = type { ptr, ptr, ptr, ptr, ptr, %struct.strmap, %struct.strmap, %struct.repo_path_cache, ptr, ptr, ptr, ptr, %struct.repo_settings, ptr, ptr, ptr, ptr, ptr, ptr, i32, i32, i32, ptr, ptr, i32, i32, i8 }
%struct.strmap = type { %struct.hashmap, ptr, i8 }
%struct.hashmap = type { ptr, ptr, ptr, i32, i32, i32, i32, i8 }
%struct.repo_path_cache = type { ptr, ptr, ptr, ptr, ptr, ptr, ptr }
%struct.repo_settings = type { i32, i32, i32, i32, i32, i32, i32, i32, i32, i32, i32, i32, ptr, i32, i32, i32, i32, i32, i32, i32, i64, i64, i64 }
%struct.raw_object_store = type { ptr, ptr, ptr, i32, ptr, ptr, i8, %union.pthread_mutex_t, ptr, i8, ptr, ptr, %struct.list_head, %struct.anon, %struct.hashmap, i64, i8 }
%union.pthread_mutex_t = type { %struct.__pthread_mutex_s }
%struct.__pthread_mutex_s = type { i32, i32, i32, i32, i32, i16, i16, %struct.__pthread_internal_list }
%struct.__pthread_internal_list = type { ptr, ptr }
%struct.list_head = type { ptr, ptr }
%struct.anon = type { ptr, i32 }
%struct.object_directory = type { ptr, [8 x i32], ptr, ptr, i32, i32, ptr }
%struct.lock_file = type { ptr }
%struct.stat = type { i64, i64, i64, i32, i32, i32, i32, i64, i64, i64, i64, %struct.timespec, %struct.timespec, %struct.timespec, [3 x i64] }
%struct.timespec = type { i64, i64 }

@.str = private unnamed_addr constant [25 x i8] c"objects/loose-object-idx\00", align 1
@loose_object_header = internal global ptr @.str.6, align 8
@.str.1 = private unnamed_addr constant [7 x i8] c"%s %s\0A\00", align 1
@.str.3 = private unnamed_addr constant [38 x i8] c"failed to write loose object index %s\00", align 1
@.str.9 = private unnamed_addr constant [1 x i8] zeroinitializer, align 1
@git_gettext_enabled = external global i32, align 4
@__const.write_one_object.buf = private unnamed_addr constant %struct.strbuf { i64 0, i64 0, ptr @strbuf_slopbuf }, align 8
@__const.write_one_object.path = private unnamed_addr constant %struct.strbuf { i64 0, i64 0, ptr @strbuf_slopbuf }, align 8

; Function Attrs: inlinehint nounwind uwtable
define internal i32 @const_error() #3 {
  ret i32 -1
}

; Function Attrs: inlinehint nounwind uwtable
define internal ptr @_(ptr noundef %0) #3 {
  %2 = alloca ptr, align 8
  %3 = alloca ptr, align 8
  store ptr %0, ptr %3, align 8, !tbaa !72
  %4 = load ptr, ptr %3, align 8, !tbaa !72
  %5 = load i8, ptr %4, align 1, !tbaa !73
  %6 = icmp ne i8 %5, 0
  br i1 %6, label %8, label %7

7:                                                ; preds = %1
  store ptr @.str.9, ptr %2, align 8
  br label %16

8:                                                ; preds = %1
  %9 = load i32, ptr @git_gettext_enabled, align 4, !tbaa !71
  %10 = icmp ne i32 %9, 0
  br i1 %10, label %13, label %11

11:                                               ; preds = %8
  %12 = load ptr, ptr %3, align 8, !tbaa !72
  store ptr %12, ptr %2, align 8
  br label %16

13:                                               ; preds = %8
  %14 = load ptr, ptr %3, align 8, !tbaa !72
  %15 = call ptr @dcgettext(ptr noundef null, ptr noundef %14, i32 noundef 5) #11
  store ptr %15, ptr %2, align 8
  br label %16

16:                                               ; preds = %13, %11, %7
  %17 = load ptr, ptr %2, align 8
  ret ptr %17
}

; Function Attrs: inlinehint nounwind uwtable
define internal i32 @rollback_lock_file(ptr noundef %0) #3 {
  %2 = alloca ptr, align 8
  store ptr %0, ptr %2, align 8, !tbaa !85
  %3 = load ptr, ptr %2, align 8, !tbaa !85
  %4 = getelementptr inbounds nuw %struct.lock_file, ptr %3, i32 0, i32 0
  %5 = call i32 @delete_tempfile(ptr noundef %4)
  ret i32 %5
}

; Function Attrs: inlinehint nounwind uwtable
define internal i32 @hold_lock_file_for_update_timeout(ptr noundef %0, ptr noundef %1, i32 noundef %2, i64 noundef %3) #3 {
  %5 = alloca ptr, align 8
  %6 = alloca ptr, align 8
  %7 = alloca i32, align 4
  %8 = alloca i64, align 8
  store ptr %0, ptr %5, align 8, !tbaa !85
  store ptr %1, ptr %6, align 8, !tbaa !72
  store i32 %2, ptr %7, align 4, !tbaa !71
  store i64 %3, ptr %8, align 8, !tbaa !87
  %9 = load ptr, ptr %5, align 8, !tbaa !85
  %10 = load ptr, ptr %6, align 8, !tbaa !72
  %11 = load i32, ptr %7, align 4, !tbaa !71
  %12 = load i64, ptr %8, align 8, !tbaa !87
  %13 = call i32 @hold_lock_file_for_update_timeout_mode(ptr noundef %9, ptr noundef %10, i32 noundef %11, i64 noundef %12, i32 noundef 438)
  ret i32 %13
}

; Function Attrs: nounwind uwtable
define internal i32 @write_one_object(ptr noundef %0, ptr noundef %1, ptr noundef %2) #0 {
  %4 = alloca i32, align 4
  %5 = alloca ptr, align 8
  %6 = alloca ptr, align 8
  %7 = alloca ptr, align 8
  %8 = alloca %struct.lock_file, align 8
  %9 = alloca i32, align 4
  %10 = alloca %struct.stat, align 8
  %11 = alloca %struct.strbuf, align 8
  %12 = alloca %struct.strbuf, align 8
  %13 = alloca i32, align 4
  store ptr %0, ptr %5, align 8, !tbaa !15
  store ptr %1, ptr %6, align 8, !tbaa !88
  store ptr %2, ptr %7, align 8, !tbaa !88
  call void @llvm.lifetime.start.p0(i64 8, ptr %8) #11
  call void @llvm.lifetime.start.p0(i64 4, ptr %9) #11
  call void @llvm.lifetime.start.p0(i64 144, ptr %10) #11
  call void @llvm.lifetime.start.p0(i64 24, ptr %11) #11
  call void @llvm.memcpy.p0.p0.i64(ptr align 8 %11, ptr align 8 @__const.write_one_object.buf, i64 24, i1 false)
  call void @llvm.lifetime.start.p0(i64 24, ptr %12) #11
  call void @llvm.memcpy.p0.p0.i64(ptr align 8 %12, ptr align 8 @__const.write_one_object.path, i64 24, i1 false)
  %14 = load ptr, ptr %5, align 8, !tbaa !15
  call void (ptr, ptr, ptr, ...) @strbuf_git_common_path(ptr noundef %12, ptr noundef %14, ptr noundef @.str)
  %15 = getelementptr inbounds nuw %struct.strbuf, ptr %12, i32 0, i32 2
  %16 = load ptr, ptr %15, align 8, !tbaa !67
  %17 = call i32 @hold_lock_file_for_update_timeout(ptr noundef %8, ptr noundef %16, i32 noundef 1, i64 noundef -1)
  %18 = getelementptr inbounds nuw %struct.strbuf, ptr %12, i32 0, i32 2
  %19 = load ptr, ptr %18, align 8, !tbaa !67
  %20 = call i32 (ptr, i32, ...) @open64(ptr noundef %19, i32 noundef 1089, i32 noundef 438)
  store i32 %20, ptr %9, align 4, !tbaa !71
  %21 = load i32, ptr %9, align 4, !tbaa !71
  %22 = icmp slt i32 %21, 0
  br i1 %22, label %23, label %24

23:                                               ; preds = %3
  br label %64

24:                                               ; preds = %3
  %25 = load i32, ptr %9, align 4, !tbaa !71
  %26 = call i32 @fstat64(i32 noundef %25, ptr noundef %10) #11
  %27 = icmp slt i32 %26, 0
  br i1 %27, label %28, label %29

28:                                               ; preds = %24
  br label %64

29:                                               ; preds = %24
  %30 = getelementptr inbounds nuw %struct.stat, ptr %10, i32 0, i32 8
  %31 = load i64, ptr %30, align 8, !tbaa !92
  %32 = icmp ne i64 %31, 0
  br i1 %32, label %41, label %33

33:                                               ; preds = %29
  %34 = load i32, ptr %9, align 4, !tbaa !71
  %35 = load ptr, ptr @loose_object_header, align 8, !tbaa !72
  %36 = load ptr, ptr @loose_object_header, align 8, !tbaa !72
  %37 = call i64 @strlen(ptr noundef %36) #13
  %38 = call i64 @write_in_full(i32 noundef %34, ptr noundef %35, i64 noundef %37)
  %39 = icmp slt i64 %38, 0
  br i1 %39, label %40, label %41

40:                                               ; preds = %33
  br label %64

41:                                               ; preds = %33, %29
  %42 = load ptr, ptr %6, align 8, !tbaa !88
  %43 = call ptr @oid_to_hex(ptr noundef %42)
  %44 = load ptr, ptr %7, align 8, !tbaa !88
  %45 = call ptr @oid_to_hex(ptr noundef %44)
  call void (ptr, ptr, ...) @strbuf_addf(ptr noundef %11, ptr noundef @.str.1, ptr noundef %43, ptr noundef %45)
  %46 = load i32, ptr %9, align 4, !tbaa !71
  %47 = getelementptr inbounds nuw %struct.strbuf, ptr %11, i32 0, i32 2
  %48 = load ptr, ptr %47, align 8, !tbaa !67
  %49 = getelementptr inbounds nuw %struct.strbuf, ptr %11, i32 0, i32 1
  %50 = load i64, ptr %49, align 8, !tbaa !74
  %51 = call i64 @write_in_full(i32 noundef %46, ptr noundef %48, i64 noundef %50)
  %52 = icmp slt i64 %51, 0
  br i1 %52, label %53, label %54

53:                                               ; preds = %41
  br label %64

54:                                               ; preds = %41
  %55 = load i32, ptr %9, align 4, !tbaa !71
  %56 = call i32 @close(i32 noundef %55)
  %57 = icmp ne i32 %56, 0
  br i1 %57, label %58, label %59

58:                                               ; preds = %54
  br label %64

59:                                               ; preds = %54
  %60 = getelementptr inbounds nuw %struct.strbuf, ptr %12, i32 0, i32 2
  %61 = load ptr, ptr %60, align 8, !tbaa !67
  %62 = call i32 @adjust_shared_perm(ptr noundef %61)
  %63 = call i32 @rollback_lock_file(ptr noundef %8)
  call void @strbuf_release(ptr noundef %11)
  call void @strbuf_release(ptr noundef %12)
  store i32 0, ptr %4, align 4
  store i32 1, ptr %13, align 4
  br label %73

64:                                               ; preds = %58, %53, %40, %28, %23
  %65 = call ptr @_(ptr noundef @.str.3)
  %66 = getelementptr inbounds nuw %struct.strbuf, ptr %12, i32 0, i32 2
  %67 = load ptr, ptr %66, align 8, !tbaa !67
  %68 = call i32 (ptr, ...) @error_errno(ptr noundef %65, ptr noundef %67)
  %69 = call i32 @const_error()
  %70 = load i32, ptr %9, align 4, !tbaa !71
  %71 = call i32 @close(i32 noundef %70)
  %72 = call i32 @rollback_lock_file(ptr noundef %8)
  call void @strbuf_release(ptr noundef %11)
  call void @strbuf_release(ptr noundef %12)
  store i32 -1, ptr %4, align 4
  store i32 1, ptr %13, align 4
  br label %73

73:                                               ; preds = %64, %59
  call void @llvm.lifetime.end.p0(i64 24, ptr %12) #11
  call void @llvm.lifetime.end.p0(i64 24, ptr %11) #11
  call void @llvm.lifetime.end.p0(i64 144, ptr %10) #11
  call void @llvm.lifetime.end.p0(i64 4, ptr %9) #11
  call void @llvm.lifetime.end.p0(i64 8, ptr %8) #11
  %74 = load i32, ptr %4, align 4
  ret i32 %74
}

; Function Attrs: nounwind uwtable
define internal i32 @insert_loose_map(ptr noundef %0, ptr noundef %1, ptr noundef %2) #0 {
  %4 = alloca ptr, align 8
  %5 = alloca ptr, align 8
  %6 = alloca ptr, align 8
  %7 = alloca ptr, align 8
  %8 = alloca i32, align 4
  store ptr %0, ptr %4, align 8, !tbaa !51
  store ptr %1, ptr %5, align 8, !tbaa !88
  store ptr %2, ptr %6, align 8, !tbaa !88
  call void @llvm.lifetime.start.p0(i64 8, ptr %7) #11
  %9 = load ptr, ptr %4, align 8, !tbaa !51
  %10 = getelementptr inbounds nuw %struct.object_directory, ptr %9, i32 0, i32 3
  %11 = load ptr, ptr %10, align 8, !tbaa !59
  store ptr %11, ptr %7, align 8, !tbaa !9
  call void @llvm.lifetime.start.p0(i64 4, ptr %8) #11
  store i32 0, ptr %8, align 4, !tbaa !71
  %12 = load ptr, ptr %7, align 8, !tbaa !9
  %13 = getelementptr inbounds nuw %struct.loose_object_map, ptr %12, i32 0, i32 0
  %14 = load ptr, ptr %13, align 8, !tbaa !11
  %15 = load ptr, ptr %5, align 8, !tbaa !88
  %16 = load ptr, ptr %6, align 8, !tbaa !88
  %17 = call i32 @insert_oid_pair(ptr noundef %14, ptr noundef %15, ptr noundef %16)
  %18 = load i32, ptr %8, align 4, !tbaa !71
  %19 = or i32 %18, %17
  store i32 %19, ptr %8, align 4, !tbaa !71
  %20 = load ptr, ptr %7, align 8, !tbaa !9
  %21 = getelementptr inbounds nuw %struct.loose_object_map, ptr %20, i32 0, i32 1
  %22 = load ptr, ptr %21, align 8, !tbaa !14
  %23 = load ptr, ptr %6, align 8, !tbaa !88
  %24 = load ptr, ptr %5, align 8, !tbaa !88
  %25 = call i32 @insert_oid_pair(ptr noundef %22, ptr noundef %23, ptr noundef %24)
  %26 = load i32, ptr %8, align 4, !tbaa !71
  %27 = or i32 %26, %25
  store i32 %27, ptr %8, align 4, !tbaa !71
  %28 = load i32, ptr %8, align 4, !tbaa !71
  %29 = icmp ne i32 %28, 0
  br i1 %29, label %30, label %35

30:                                               ; preds = %3
  %31 = load ptr, ptr %4, align 8, !tbaa !51
  %32 = getelementptr inbounds nuw %struct.object_directory, ptr %31, i32 0, i32 2
  %33 = load ptr, ptr %32, align 8, !tbaa !60
  %34 = load ptr, ptr %6, align 8, !tbaa !88
  call void @oidtree_insert(ptr noundef %33, ptr noundef %34)
  br label %35

35:                                               ; preds = %30, %3
  %36 = load i32, ptr %8, align 4, !tbaa !71
  call void @llvm.lifetime.end.p0(i64 4, ptr %8) #11
  call void @llvm.lifetime.end.p0(i64 8, ptr %7) #11
  ret i32 %36
}

; Function Attrs: inlinehint nounwind uwtable
define internal i32 @should_use_loose_object_map(ptr noundef %0) #3 {
  %2 = alloca ptr, align 8
  store ptr %0, ptr %2, align 8, !tbaa !15
  %3 = load ptr, ptr %2, align 8, !tbaa !15
  %4 = getelementptr inbounds nuw %struct.repository, ptr %3, i32 0, i32 18
  %5 = load ptr, ptr %4, align 8, !tbaa !57
  %6 = icmp ne ptr %5, null
  br i1 %6, label %7, label %12

7:                                                ; preds = %1
  %8 = load ptr, ptr %2, align 8, !tbaa !15
  %9 = getelementptr inbounds nuw %struct.repository, ptr %8, i32 0, i32 0
  %10 = load ptr, ptr %9, align 8, !tbaa !58
  %11 = icmp ne ptr %10, null
  br label %12

12:                                               ; preds = %7, %1
  %13 = phi i1 [ false, %1 ], [ %11, %7 ]
  %14 = zext i1 %13 to i32
  ret i32 %14
}

; Function Attrs: nounwind uwtable
define dso_local i32 @repo_add_loose_object_map(ptr noundef %0, ptr noundef %1, ptr noundef %2) #0 {
  %4 = alloca i32, align 4
  %5 = alloca ptr, align 8
  %6 = alloca ptr, align 8
  %7 = alloca ptr, align 8
  %8 = alloca i32, align 4
  %9 = alloca i32, align 4
  store ptr %0, ptr %5, align 8, !tbaa !15
  store ptr %1, ptr %6, align 8, !tbaa !88
  store ptr %2, ptr %7, align 8, !tbaa !88
  call void @llvm.lifetime.start.p0(i64 4, ptr %8) #11
  store i32 0, ptr %8, align 4, !tbaa !71
  %10 = load ptr, ptr %5, align 8, !tbaa !15
  %11 = call i32 @should_use_loose_object_map(ptr noundef %10)
  %12 = icmp ne i32 %11, 0
  br i1 %12, label %14, label %13

13:                                               ; preds = %3
  store i32 0, ptr %4, align 4
  store i32 1, ptr %9, align 4
  br label %31

14:                                               ; preds = %3
  %15 = load ptr, ptr %5, align 8, !tbaa !15
  %16 = getelementptr inbounds nuw %struct.repository, ptr %15, i32 0, i32 2
  %17 = load ptr, ptr %16, align 8, !tbaa !17
  %18 = getelementptr inbounds nuw %struct.raw_object_store, ptr %17, i32 0, i32 0
  %19 = load ptr, ptr %18, align 8, !tbaa !38
  %20 = load ptr, ptr %6, align 8, !tbaa !88
  %21 = load ptr, ptr %7, align 8, !tbaa !88
  %22 = call i32 @insert_loose_map(ptr noundef %19, ptr noundef %20, ptr noundef %21)
  store i32 %22, ptr %8, align 4, !tbaa !71
  %23 = load i32, ptr %8, align 4, !tbaa !71
  %24 = icmp ne i32 %23, 0
  br i1 %24, label %25, label %30

25:                                               ; preds = %14
  %26 = load ptr, ptr %5, align 8, !tbaa !15
  %27 = load ptr, ptr %6, align 8, !tbaa !88
  %28 = load ptr, ptr %7, align 8, !tbaa !88
  %29 = call i32 @write_one_object(ptr noundef %26, ptr noundef %27, ptr noundef %28)
  store i32 %29, ptr %4, align 4
  store i32 1, ptr %9, align 4
  br label %31

30:                                               ; preds = %14
  store i32 0, ptr %4, align 4
  store i32 1, ptr %9, align 4
  br label %31

31:                                               ; preds = %30, %25, %13
  call void @llvm.lifetime.end.p0(i64 4, ptr %8) #11
  %32 = load i32, ptr %4, align 4
  ret i32 %32
}