; Function Attrs: nounwind uwtable
define dso_local range(i32 -1, 1) i32 @repo_add_loose_object_map(ptr noundef %0, ptr noundef %1, ptr noundef %2) local_unnamed_addr #0 {
  %4 = alloca %struct.lock_file, align 8
  %5 = alloca %struct.stat, align 8
  %6 = alloca %struct.strbuf, align 8
  %7 = alloca %struct.strbuf, align 8
  %8 = getelementptr inbounds nuw i8, ptr %0, i64 408
  %9 = load ptr, ptr %8, align 8, !tbaa !13
  %.not.i = icmp eq ptr %9, null
  br i1 %.not.i, label %should_use_loose_object_map.exit.thread, label %should_use_loose_object_map.exit

should_use_loose_object_map.exit:                 ; preds = %3
  %10 = load ptr, ptr %0, align 8, !tbaa !34
  %.not12 = icmp eq ptr %10, null
  br i1 %.not12, label %should_use_loose_object_map.exit.thread, label %11

11:                                               ; preds = %should_use_loose_object_map.exit
  %12 = getelementptr inbounds nuw i8, ptr %0, i64 16
  %13 = load ptr, ptr %12, align 8, !tbaa !35
  %14 = load ptr, ptr %13, align 8, !tbaa !56
  %15 = getelementptr inbounds nuw i8, ptr %14, i64 48
  %16 = load ptr, ptr %15, align 8, !tbaa !38
  %17 = load ptr, ptr %16, align 8, !tbaa !4
  %18 = tail call fastcc i32 @insert_oid_pair(ptr noundef %17, ptr noundef readonly %1, ptr noundef %2)
  %19 = getelementptr inbounds nuw i8, ptr %16, i64 8
  %20 = load ptr, ptr %19, align 8, !tbaa !10
  %21 = tail call fastcc i32 @insert_oid_pair(ptr noundef %20, ptr noundef %2, ptr noundef readonly %1)
  %22 = or i32 %21, %18
  %.not.i9 = icmp eq i32 %22, 0
  br i1 %.not.i9, label %should_use_loose_object_map.exit.thread, label %23

23:                                               ; preds = %11
  %24 = getelementptr inbounds nuw i8, ptr %14, i64 40
  %25 = load ptr, ptr %24, align 8, !tbaa !41
  tail call void @oidtree_insert(ptr noundef %25, ptr noundef %2) #15
  call void @llvm.lifetime.start.p0(i64 8, ptr nonnull %4) #15
  call void @llvm.lifetime.start.p0(i64 144, ptr nonnull %5) #15
  call void @llvm.lifetime.start.p0(i64 24, ptr nonnull %6) #15
  call void @llvm.memcpy.p0.p0.i64(ptr noundef nonnull align 8 dereferenceable(24) %6, ptr noundef nonnull align 8 dereferenceable(24) @__const.write_one_object.path, i64 24, i1 false)
  call void @llvm.lifetime.start.p0(i64 24, ptr nonnull %7) #15
  call void @llvm.memcpy.p0.p0.i64(ptr noundef nonnull align 8 dereferenceable(24) %7, ptr noundef nonnull align 8 dereferenceable(24) @__const.write_one_object.path, i64 24, i1 false)
  call void (ptr, ptr, ptr, ...) @strbuf_git_common_path(ptr noundef nonnull %7, ptr noundef nonnull %0, ptr noundef nonnull @.str) #15
  %26 = getelementptr inbounds nuw i8, ptr %7, i64 16
  %27 = load ptr, ptr %26, align 8, !tbaa !48
  %28 = call i32 @hold_lock_file_for_update_timeout_mode(ptr noundef nonnull %4, ptr noundef %27, i32 noundef 1, i64 noundef -1, i32 noundef 438) #15
  %29 = load ptr, ptr %26, align 8, !tbaa !48
  %30 = call i32 (ptr, i32, ...) @open64(ptr noundef %29, i32 noundef 1089, i32 noundef 438) #15
  %31 = icmp slt i32 %30, 0
  br i1 %31, label %55, label %32

32:                                               ; preds = %23
  %33 = call i32 @fstat64(i32 noundef %30, ptr noundef nonnull %5) #15
  %34 = icmp slt i32 %33, 0
  br i1 %34, label %55, label %35

35:                                               ; preds = %32
  %36 = getelementptr inbounds nuw i8, ptr %5, i64 48
  %37 = load i64, ptr %36, align 8, !tbaa !76
  %.not.i10 = icmp eq i64 %37, 0
  br i1 %.not.i10, label %38, label %41

38:                                               ; preds = %35
  %39 = call i64 @write_in_full(i32 noundef %30, ptr noundef nonnull @.str.6, i64 noundef 19) #15
  %40 = icmp slt i64 %39, 0
  br i1 %40, label %55, label %41

41:                                               ; preds = %38, %35
  %42 = call ptr @oid_to_hex(ptr noundef %1) #15
  %43 = call ptr @oid_to_hex(ptr noundef %2) #15
  call void (ptr, ptr, ...) @strbuf_addf(ptr noundef nonnull %6, ptr noundef nonnull @.str.1, ptr noundef %42, ptr noundef %43) #15
  %44 = getelementptr inbounds nuw i8, ptr %6, i64 16
  %45 = load ptr, ptr %44, align 8, !tbaa !48
  %46 = getelementptr inbounds nuw i8, ptr %6, i64 8
  %47 = load i64, ptr %46, align 8, !tbaa !53
  %48 = call i64 @write_in_full(i32 noundef %30, ptr noundef %45, i64 noundef %47) #15
  %49 = icmp slt i64 %48, 0
  br i1 %49, label %55, label %50

50:                                               ; preds = %41
  %51 = call i32 @close(i32 noundef %30) #15
  %.not10.i = icmp eq i32 %51, 0
  br i1 %.not10.i, label %52, label %55

52:                                               ; preds = %50
  %53 = load ptr, ptr %26, align 8, !tbaa !48
  %54 = call i32 @adjust_shared_perm(ptr noundef %53) #15
  br label %write_one_object.exit

55:                                               ; preds = %50, %41, %38, %32, %23
  %56 = load i32, ptr @git_gettext_enabled, align 4, !tbaa !50
  %.not4.i.i = icmp eq i32 %56, 0
  br i1 %.not4.i.i, label %_.exit.i, label %57

57:                                               ; preds = %55
  %58 = call ptr @dcgettext(ptr noundef null, ptr noundef nonnull @.str.3, i32 noundef 5) #15
  br label %_.exit.i

_.exit.i:                                         ; preds = %57, %55
  %.0.i.i = phi ptr [ %58, %57 ], [ @.str.3, %55 ]
  %59 = load ptr, ptr %26, align 8, !tbaa !48
  %60 = call i32 (ptr, ...) @error_errno(ptr noundef %.0.i.i, ptr noundef %59) #15
  %61 = call i32 @close(i32 noundef %30) #15
  br label %write_one_object.exit

write_one_object.exit:                            ; preds = %52, %_.exit.i
  %.0.i = phi i32 [ -1, %_.exit.i ], [ 0, %52 ]
  %62 = call i32 @delete_tempfile(ptr noundef nonnull %4) #15
  call void @strbuf_release(ptr noundef nonnull %6) #15
  call void @strbuf_release(ptr noundef nonnull %7) #15
  call void @llvm.lifetime.end.p0(i64 24, ptr nonnull %7) #15
  call void @llvm.lifetime.end.p0(i64 24, ptr nonnull %6) #15
  call void @llvm.lifetime.end.p0(i64 144, ptr nonnull %5) #15
  call void @llvm.lifetime.end.p0(i64 8, ptr nonnull %4) #15
  br label %should_use_loose_object_map.exit.thread

should_use_loose_object_map.exit.thread:          ; preds = %11, %3, %should_use_loose_object_map.exit, %write_one_object.exit
  %.0 = phi i32 [ %.0.i, %write_one_object.exit ], [ 0, %should_use_loose_object_map.exit ], [ 0, %3 ], [ 0, %11 ]
  ret i32 %.0
}